target datalayout = "e-m:e-p270:32:32-p271:32:32-p272:64:64-i64:64-i128:128-f80:128-n8:16:32:64-S128"
target triple = "x86_64-unknown-linux-gnu"

%struct.redisServer = type { i32, i64, ptr, ptr, ptr, i32, i32, i32, i32, i32, ptr, ptr, ptr, ptr, ptr, ptr, i32, i32, i64, i32, i32, i32, i32, ptr, i32, i32, [41 x i8], i32, i64, i32, i32, i32, ptr, ptr, i32, i32, i64, ptr, ptr, ptr, ptr, [2 x i32], i32, i32, i32, i32, i32, [16 x ptr], i32, ptr, ptr, i32, [8 x %struct.connListener], i32, %struct.connListener, ptr, ptr, ptr, ptr, ptr, ptr, ptr, ptr, ptr, ptr, i32, ptr, i32, ptr, [3 x %struct.pause_event], [256 x i8], ptr, i64, i32, i32, i32, i32, i64, i32, i32, i32, i32, i32, i64, i64, i64, i64, i64, i64, i64, i64, i64, double, i64, i64, i64, i64, i64, i64, i64, i64, i64, i64, i64, i64, i64, i64, i64, i64, i64, i64, i64, i64, double, i64, i64, i64, i64, i64, ptr, i64, i64, i64, %struct.malloc_stats, i64, i64, i64, i64, i64, i64, i64, i64, i64, i64, i64, i64, double, [4 x i64], i64, i64, i64, i64, i64, i64, i64, i64, i64, i64, [7 x %struct.anon], i64, i64, i64, i64, i64, i64, [4 x %struct.durationStats], i32, i32, i32, i32, i32, i32, i32, i32, i32, i32, i64, i32, i32, i32, i32, i64, i64, i32, i32, i32, i32, i32, ptr, [3 x %struct.clientBufferLimitsConfig], i32, i32, ptr, i32, i32, i32, i32, ptr, ptr, i32, i32, i64, i64, i64, i64, i64, i32, i32, ptr, i32, i32, i64, i64, i64, i64, i64, i32, i32, i64, i32, i32, i32, i32, i32, i32, i32, i32, ptr, i32, i64, i64, i64, i64, ptr, i32, ptr, i32, i32, i32, i64, i64, i64, i64, i32, i32, i32, i32, i32, i32, ptr, i32, i32, ptr, i32, i32, i32, [2 x i32], i32, %struct.redisOpArray, i32, ptr, i32, ptr, i32, i32, i32, i32, i32, i32, i32, [41 x i8], [41 x i8], i64, i64, i64, i64, i32, i32, ptr, i64, i64, i64, i32, i32, i32, i32, i32, i32, i32, i64, ptr, ptr, ptr, ptr, i32, i32, ptr, ptr, i32, i32, i64, i64, i64, ptr, i32, ptr, i64, i32, i32, i32, i64, i32, i32, i32, i32, ptr, i32, i32, [41 x i8], i64, i32, ptr, i32, i32, i64, i64, i32, i32, i32, i32, i32, i64, [3 x i32], i32, i32, i32, [9 x i32], ptr, ptr, i32, i64, ptr, ptr, i32, i32, i32, i32, i64, i64, i64, i64, i64, i64, i64, i64, i64, i64, i32, i32, i64, i64, i32, i64, i64, i64, i64, i64, ptr, ptr, i32, ptr, i32, i32, i32, i64, i64, ptr, ptr, i32, i32, i32, i32, i32, ptr, ptr, ptr, i32, i32, i32, i32, i32, i32, i32, i64, i32, i64, i32, i32, i32, i32, i32, i32, i32, i64, ptr, ptr, i64, ptr, i32, %struct.aclInfo, i32, i64, i32, i32, i32, %struct.redisTLSContextConfig, ptr, ptr, ptr, ptr, ptr, i64, i32, ptr, i32, i32, i32, i64, i32, ptr }
%struct.connListener = type { [16 x i32], i32, ptr, i32, i32, ptr, ptr }
%struct.pause_event = type { i32, i64 }
%struct.malloc_stats = type { i64, i64, i64, i64, i64 }
%struct.anon = type { i64, i64, [16 x i64], i32 }
%struct.durationStats = type { i64, i64, i64 }
%struct.clientBufferLimitsConfig = type { i64, i64, i64 }
%struct.redisOpArray = type { ptr, i32, i32 }
%struct.aclInfo = type { i64, i64, i64, i64 }
%struct.redisTLSContextConfig = type { ptr, ptr, ptr, ptr, ptr, ptr, ptr, ptr, ptr, ptr, ptr, ptr, i32, i32, i32, i32 }
%struct.listNode = type { ptr, ptr, ptr }
%struct.replBacklog = type { ptr, i64, ptr, i64, i64 }
%struct.replBufBlock = type { i32, i64, i64, i64, i64, [0 x i8] }

@server = external global %struct.redisServer, align 8

; Function Attrs: nounwind uwtable
define dso_local void @createReplicationBacklogIndex(ptr noundef %ln) #0 {
entry:
  %ln.addr = alloca ptr, align 8
  %o = alloca ptr, align 8
  %encoded_offset = alloca i64, align 8
  store ptr %ln, ptr %ln.addr, align 8
  %0 = load ptr, ptr getelementptr inbounds (%struct.redisServer, ptr @server, i32 0, i32 268), align 8
  %unindexed_count = getelementptr inbounds %struct.replBacklog, ptr %0, i32 0, i32 1
  %1 = load i64, ptr %unindexed_count, align 8
  %inc = add i64 %1, 1
  store i64 %inc, ptr %unindexed_count, align 8
  %2 = load ptr, ptr getelementptr inbounds (%struct.redisServer, ptr @server, i32 0, i32 268), align 8
  %unindexed_count1 = getelementptr inbounds %struct.replBacklog, ptr %2, i32 0, i32 1
  %3 = load i64, ptr %unindexed_count1, align 8
  %cmp = icmp uge i64 %3, 64
  br i1 %cmp, label %if.then, label %if.end

if.then:                                          ; preds = %entry
  %4 = load ptr, ptr %ln.addr, align 8
  %value = getelementptr inbounds %struct.listNode, ptr %4, i32 0, i32 2
  %5 = load ptr, ptr %value, align 8
  store ptr %5, ptr %o, align 8
  %6 = load ptr, ptr %o, align 8
  %repl_offset = getelementptr inbounds %struct.replBufBlock, ptr %6, i32 0, i32 2
  %7 = load i64, ptr %repl_offset, align 8
  %call = call i64 @intrev64(i64 noundef %7)
  store i64 %call, ptr %encoded_offset, align 8
  %8 = load ptr, ptr getelementptr inbounds (%struct.redisServer, ptr @server, i32 0, i32 268), align 8
  %blocks_index = getelementptr inbounds %struct.replBacklog, ptr %8, i32 0, i32 2
  %9 = load ptr, ptr %blocks_index, align 8
  %10 = load ptr, ptr %ln.addr, align 8
  %call2 = call i32 @raxInsert(ptr noundef %9, ptr noundef %encoded_offset, i64 noundef 8, ptr noundef %10, ptr noundef null)
  %11 = load ptr, ptr getelementptr inbounds (%struct.redisServer, ptr @server, i32 0, i32 268), align 8
  %unindexed_count3 = getelementptr inbounds %struct.replBacklog, ptr %11, i32 0, i32 1
  store i64 0, ptr %unindexed_count3, align 8
  br label %if.end

if.end:                                           ; preds = %if.then, %entry
  ret void
}