; Function Attrs: nounwind uwtable
define dso_local void @createReplicationBacklogIndex(ptr noundef %ln) local_unnamed_addr #0 {
entry:
  %encoded_offset = alloca i64, align 8
  %0 = load ptr, ptr getelementptr inbounds (%struct.redisServer, ptr @server, i64 0, i32 268), align 8
  %unindexed_count = getelementptr inbounds i8, ptr %0, i64 8
  %1 = load i64, ptr %unindexed_count, align 8
  %inc = add i64 %1, 1
  store i64 %inc, ptr %unindexed_count, align 8
  %2 = load ptr, ptr getelementptr inbounds (%struct.redisServer, ptr @server, i64 0, i32 268), align 8
  %unindexed_count1 = getelementptr inbounds i8, ptr %2, i64 8
  %3 = load i64, ptr %unindexed_count1, align 8
  %cmp = icmp ugt i64 %3, 63
  br i1 %cmp, label %if.then, label %if.end

if.then:                                          ; preds = %entry
  %value = getelementptr inbounds i8, ptr %ln, i64 16
  %4 = load ptr, ptr %value, align 8
  %repl_offset = getelementptr inbounds i8, ptr %4, i64 16
  %5 = load i64, ptr %repl_offset, align 8
  %call = tail call i64 @intrev64(i64 noundef %5) #21
  store i64 %call, ptr %encoded_offset, align 8
  %6 = load ptr, ptr getelementptr inbounds (%struct.redisServer, ptr @server, i64 0, i32 268), align 8
  %blocks_index = getelementptr inbounds i8, ptr %6, i64 16
  %7 = load ptr, ptr %blocks_index, align 8
  %call2 = call i32 @raxInsert(ptr noundef %7, ptr noundef nonnull %encoded_offset, i64 noundef 8, ptr noundef %ln, ptr noundef null) #21
  %8 = load ptr, ptr getelementptr inbounds (%struct.redisServer, ptr @server, i64 0, i32 268), align 8
  %unindexed_count3 = getelementptr inbounds i8, ptr %8, i64 8
  store i64 0, ptr %unindexed_count3, align 8
  br label %if.end

if.end:                                           ; preds = %if.then, %entry
  ret void
}